target datalayout = "e-m:e-p270:32:32-p271:32:32-p272:64:64-i64:64-i128:128-f80:128-n8:16:32:64-S128"
target triple = "x86_64-pc-linux-gnu"

%struct.darktable_t = type { %struct.dt_codepath_t, i32, i32, ptr, ptr, ptr, ptr, ptr, ptr, ptr, ptr, ptr, ptr, ptr, ptr, ptr, ptr, ptr, ptr, ptr, ptr, ptr, ptr, ptr, ptr, ptr, ptr, ptr, ptr, ptr, [64 x %struct.dt_pthread_mutex_t], %struct.dt_pthread_mutex_t, %struct.dt_pthread_mutex_t, %struct.dt_pthread_mutex_t, %struct.dt_pthread_mutex_t, %struct.dt_pthread_mutex_t, ptr, ptr, ptr, ptr, ptr, ptr, ptr, ptr, ptr, ptr, ptr, ptr, ptr, %struct.dt_lua_state_t, ptr, double, ptr, i32, [47 x i32], i32, i32, ptr, ptr, %struct.dt_sys_resources_t, %struct.dt_backthumb_t, %struct.dt_gimp_t }
%struct.dt_codepath_t = type { i8, [3 x i8] }
%struct.dt_pthread_mutex_t = type { %union.pthread_mutex_t }
%union.pthread_mutex_t = type { %struct.__pthread_mutex_s }
%struct.__pthread_mutex_s = type { i32, i32, i32, i32, i32, i16, i16, %struct.__pthread_internal_list }
%struct.__pthread_internal_list = type { ptr, ptr }
%struct.dt_lua_state_t = type { i32 }
%struct.dt_sys_resources_t = type { i64, i64, ptr, ptr, i32 }
%struct.dt_backthumb_t = type { double, double, i32, i32, i32, i32 }
%struct.dt_gimp_t = type { i32, ptr, ptr, i32, i32 }
%struct.dt_lib_module_t = type { %struct.dt_action_t, ptr, ptr, ptr, ptr, ptr, ptr, ptr, ptr, ptr, ptr, ptr, ptr, ptr, ptr, ptr, ptr, ptr, ptr, ptr, ptr, ptr, ptr, ptr, ptr, ptr, ptr, ptr, ptr, ptr, ptr, [128 x i8], ptr, ptr, i32, ptr, ptr, ptr, i32 }
%struct.dt_action_t = type { i32, ptr, ptr, ptr, ptr, ptr }
%struct.dt_lib_t = type { ptr, ptr, %struct.anon }
%struct.anon = type { %struct.anon.0, %struct.anon.1, %struct.anon.2, %struct.anon.3 }
%struct.anon.0 = type { ptr, ptr, ptr, ptr, ptr, i32, i32, i32, ptr, ptr, ptr, ptr, ptr }
%struct.anon.1 = type { ptr, ptr, i32 }
%struct.anon.2 = type { ptr }
%struct.anon.3 = type { i32 }
%struct._GList = type { ptr, ptr, ptr }

@darktable = external global %struct.darktable_t, align 8
@.str.3 = private unnamed_addr constant [112 x i8] c"generated/home/dtcxzyw/WorkSpace/Projects/compilers/llvm-opt-benchmark/bench/darktable/darktable/src/libs/lib.c\00", align 1
@.str.43 = private unnamed_addr constant [21 x i8] c"_preferences_changed\00", align 1
@.str.45 = private unnamed_addr constant [46 x i8] c"[signal] disconnect %s; %s:%d, function: %s()\00", align 1
@__FUNCTION__.dt_lib_cleanup = private unnamed_addr constant [15 x i8] c"dt_lib_cleanup\00", align 1
@.str.46 = private unnamed_addr constant [61 x i8] c"[signal] disconnect %d signals for %s; %s:%d, function: %s()\00", align 1

; Function Attrs: nounwind uwtable
define internal void @dt_lib_unload_module(ptr noundef %0) #0 {
  %2 = alloca ptr, align 8
  store ptr %0, ptr %2, align 8, !tbaa !6
  %3 = load ptr, ptr %2, align 8, !tbaa !6
  %4 = getelementptr inbounds nuw %struct.dt_lib_module_t, ptr %3, i32 0, i32 29
  %5 = load ptr, ptr %4, align 8, !tbaa !182
  %6 = icmp ne ptr %5, null
  br i1 %6, label %7, label %12

7:                                                ; preds = %1
  %8 = load ptr, ptr %2, align 8, !tbaa !6
  %9 = getelementptr inbounds nuw %struct.dt_lib_module_t, ptr %8, i32 0, i32 29
  %10 = load ptr, ptr %9, align 8, !tbaa !182
  %11 = call i32 @g_module_close(ptr noundef %10)
  br label %12

12:                                               ; preds = %7, %1
  ret void
}

; Function Attrs: nounwind uwtable
define void @dt_lib_cleanup(ptr noundef %0) #0 {
  %2 = alloca ptr, align 8
  %3 = alloca ptr, align 8
  %4 = alloca i32, align 4
  store ptr %0, ptr %2, align 8, !tbaa !181
  br label %5

5:                                                ; preds = %1
  %6 = load i32, ptr getelementptr inbounds nuw (%struct.darktable_t, ptr @darktable, i32 0, i32 53), align 8, !tbaa !100
  %7 = and i32 %6, 4
  %8 = icmp ne i32 %7, 0
  br i1 %8, label %9, label %22

9:                                                ; preds = %5
  br label %10

10:                                               ; preds = %9
  %11 = load i32, ptr getelementptr inbounds nuw (%struct.darktable_t, ptr @darktable, i32 0, i32 2), align 8, !tbaa !21
  %12 = and i32 1048576, %11
  %13 = icmp ne i32 %12, 0
  br i1 %13, label %14, label %20

14:                                               ; preds = %10
  %15 = load i32, ptr getelementptr inbounds nuw (%struct.darktable_t, ptr @darktable, i32 0, i32 2), align 8, !tbaa !21
  %16 = xor i32 %15, -1
  %17 = and i32 0, %16
  %18 = icmp ne i32 %17, 0
  br i1 %18, label %20, label %19

19:                                               ; preds = %14
  call void (ptr, ...) @dt_print_ext(ptr noundef @.str.45, ptr noundef @.str.43, ptr noundef @.str.3, i32 noundef 1366, ptr noundef @__FUNCTION__.dt_lib_cleanup)
  br label %20

20:                                               ; preds = %19, %14, %10
  br label %21

21:                                               ; preds = %20
  br label %22

22:                                               ; preds = %21, %5
  %23 = load ptr, ptr getelementptr inbounds nuw (%struct.darktable_t, ptr @darktable, i32 0, i32 13), align 8, !tbaa !101
  %24 = load ptr, ptr %2, align 8, !tbaa !181
  call void @dt_control_signal_disconnect(ptr noundef %23, ptr noundef @_preferences_changed, ptr noundef %24)
  br label %25

25:                                               ; preds = %22
  br label %26

26:                                               ; preds = %85, %25
  %27 = load ptr, ptr %2, align 8, !tbaa !181
  %28 = getelementptr inbounds nuw %struct.dt_lib_t, ptr %27, i32 0, i32 0
  %29 = load ptr, ptr %28, align 8, !tbaa !80
  %30 = icmp ne ptr %29, null
  br i1 %30, label %31, label %95

31:                                               ; preds = %26
  call void @llvm.lifetime.start.p0(i64 8, ptr %3) #12
  %32 = load ptr, ptr %2, align 8, !tbaa !181
  %33 = getelementptr inbounds nuw %struct.dt_lib_t, ptr %32, i32 0, i32 0
  %34 = load ptr, ptr %33, align 8, !tbaa !80
  %35 = getelementptr inbounds nuw %struct._GList, ptr %34, i32 0, i32 0
  %36 = load ptr, ptr %35, align 8, !tbaa !90
  store ptr %36, ptr %3, align 8, !tbaa !6
  %37 = load ptr, ptr %3, align 8, !tbaa !6
  %38 = icmp ne ptr %37, null
  br i1 %38, label %39, label %85

39:                                               ; preds = %31
  %40 = load ptr, ptr %3, align 8, !tbaa !6
  %41 = getelementptr inbounds nuw %struct.dt_lib_module_t, ptr %40, i32 0, i32 30
  %42 = load ptr, ptr %41, align 8, !tbaa !204
  %43 = icmp ne ptr %42, null
  br i1 %43, label %44, label %82

44:                                               ; preds = %39
  br label %45

45:                                               ; preds = %44
  call void @llvm.lifetime.start.p0(i64 4, ptr %4) #12
  %46 = load ptr, ptr getelementptr inbounds nuw (%struct.darktable_t, ptr @darktable, i32 0, i32 13), align 8, !tbaa !101
  %47 = load ptr, ptr %3, align 8, !tbaa !6
  %48 = call i32 @dt_control_signal_disconnect_all(ptr noundef %46, ptr noundef %47)
  store i32 %48, ptr %4, align 4, !tbaa !62
  %49 = load i32, ptr %4, align 4, !tbaa !62
  %50 = icmp ne i32 %49, 0
  br i1 %50, label %51, label %73

51:                                               ; preds = %45
  %52 = load i32, ptr getelementptr inbounds nuw (%struct.darktable_t, ptr @darktable, i32 0, i32 53), align 8, !tbaa !100
  %53 = and i32 %52, 4
  %54 = icmp ne i32 %53, 0
  br i1 %54, label %55, label %73

55:                                               ; preds = %51
  br label %56

56:                                               ; preds = %55
  %57 = load i32, ptr getelementptr inbounds nuw (%struct.darktable_t, ptr @darktable, i32 0, i32 2), align 8, !tbaa !21
  %58 = and i32 1048576, %57
  %59 = icmp ne i32 %58, 0
  br i1 %59, label %60, label %70

60:                                               ; preds = %56
  %61 = load i32, ptr getelementptr inbounds nuw (%struct.darktable_t, ptr @darktable, i32 0, i32 2), align 8, !tbaa !21
  %62 = xor i32 %61, -1
  %63 = and i32 0, %62
  %64 = icmp ne i32 %63, 0
  br i1 %64, label %70, label %65

65:                                               ; preds = %60
  %66 = load i32, ptr %4, align 4, !tbaa !62
  %67 = load ptr, ptr %3, align 8, !tbaa !6
  %68 = getelementptr inbounds nuw %struct.dt_lib_module_t, ptr %67, i32 0, i32 31
  %69 = getelementptr inbounds [128 x i8], ptr %68, i64 0, i64 0
  call void (ptr, ...) @dt_print_ext(ptr noundef @.str.46, i32 noundef %66, ptr noundef %69, ptr noundef @.str.3, i32 noundef 1374, ptr noundef @__FUNCTION__.dt_lib_cleanup)
  br label %70

70:                                               ; preds = %65, %60, %56
  br label %71

71:                                               ; preds = %70
  br label %72

72:                                               ; preds = %71
  br label %73

73:                                               ; preds = %72, %51, %45
  call void @llvm.lifetime.end.p0(i64 4, ptr %4) #12
  br label %74

74:                                               ; preds = %73
  br label %75

75:                                               ; preds = %74
  %76 = load ptr, ptr %3, align 8, !tbaa !6
  %77 = getelementptr inbounds nuw %struct.dt_lib_module_t, ptr %76, i32 0, i32 9
  %78 = load ptr, ptr %77, align 8, !tbaa !205
  %79 = load ptr, ptr %3, align 8, !tbaa !6
  call void %78(ptr noundef %79)
  %80 = load ptr, ptr %3, align 8, !tbaa !6
  %81 = getelementptr inbounds nuw %struct.dt_lib_module_t, ptr %80, i32 0, i32 30
  store ptr null, ptr %81, align 8, !tbaa !204
  br label %82

82:                                               ; preds = %75, %39
  %83 = load ptr, ptr %3, align 8, !tbaa !6
  call void @dt_lib_unload_module(ptr noundef %83)
  %84 = load ptr, ptr %3, align 8, !tbaa !6
  call void @free(ptr noundef %84) #12
  br label %85

85:                                               ; preds = %82, %31
  %86 = load ptr, ptr %2, align 8, !tbaa !181
  %87 = getelementptr inbounds nuw %struct.dt_lib_t, ptr %86, i32 0, i32 0
  %88 = load ptr, ptr %87, align 8, !tbaa !80
  %89 = load ptr, ptr %2, align 8, !tbaa !181
  %90 = getelementptr inbounds nuw %struct.dt_lib_t, ptr %89, i32 0, i32 0
  %91 = load ptr, ptr %90, align 8, !tbaa !80
  %92 = call ptr @g_list_delete_link(ptr noundef %88, ptr noundef %91)
  %93 = load ptr, ptr %2, align 8, !tbaa !181
  %94 = getelementptr inbounds nuw %struct.dt_lib_t, ptr %93, i32 0, i32 0
  store ptr %92, ptr %94, align 8, !tbaa !80
  call void @llvm.lifetime.end.p0(i64 8, ptr %3) #12
  br label %26

95:                                               ; preds = %26
  ret void
}