; Function Attrs: nounwind uwtable
define void @dt_lib_cleanup(ptr noundef %0) local_unnamed_addr #0 {
  %2 = load i32, ptr getelementptr inbounds nuw (i8, ptr @darktable, i64 3128), align 8, !tbaa !81
  %3 = and i32 %2, 4
  %.not = icmp eq i32 %3, 0
  br i1 %.not, label %8, label %4

4:                                                ; preds = %1
  %5 = load i32, ptr getelementptr inbounds nuw (i8, ptr @darktable, i64 8), align 8, !tbaa !59
  %6 = and i32 %5, 1048576
  %.not18 = icmp eq i32 %6, 0
  br i1 %.not18, label %8, label %7

7:                                                ; preds = %4
  tail call void (ptr, ...) @dt_print_ext(ptr noundef nonnull @.str.45, ptr noundef nonnull @.str.43, ptr noundef nonnull @.str.3, i32 noundef 1366, ptr noundef nonnull @__FUNCTION__.dt_lib_cleanup) #19
  br label %8

8:                                                ; preds = %7, %4, %1
  %9 = load ptr, ptr getelementptr inbounds nuw (i8, ptr @darktable, i64 96), align 8, !tbaa !82
  tail call void @dt_control_signal_disconnect(ptr noundef %9, ptr noundef nonnull @_preferences_changed, ptr noundef %0) #19
  %.pr = load ptr, ptr %0, align 8, !tbaa !154
  %.not1925 = icmp eq ptr %.pr, null
  br i1 %.not1925, label %._crit_edge, label %.lr.ph

.lr.ph:                                           ; preds = %8, %33
  %10 = phi ptr [ %35, %33 ], [ %.pr, %8 ]
  %11 = load ptr, ptr %10, align 8, !tbaa !73
  %.not20 = icmp eq ptr %11, null
  br i1 %.not20, label %33, label %12

12:                                               ; preds = %.lr.ph
  %13 = getelementptr inbounds nuw i8, ptr %11, i64 280
  %14 = load ptr, ptr %13, align 8, !tbaa !170
  %.not21 = icmp eq ptr %14, null
  br i1 %.not21, label %29, label %15

15:                                               ; preds = %12
  %16 = load ptr, ptr getelementptr inbounds nuw (i8, ptr @darktable, i64 96), align 8, !tbaa !82
  %17 = tail call i32 @dt_control_signal_disconnect_all(ptr noundef %16, ptr noundef nonnull %11) #19
  %.not22 = icmp eq i32 %17, 0
  br i1 %.not22, label %26, label %18

18:                                               ; preds = %15
  %19 = load i32, ptr getelementptr inbounds nuw (i8, ptr @darktable, i64 3128), align 8, !tbaa !81
  %20 = and i32 %19, 4
  %.not23 = icmp eq i32 %20, 0
  br i1 %.not23, label %26, label %21

21:                                               ; preds = %18
  %22 = load i32, ptr getelementptr inbounds nuw (i8, ptr @darktable, i64 8), align 8, !tbaa !59
  %23 = and i32 %22, 1048576
  %.not24 = icmp eq i32 %23, 0
  br i1 %.not24, label %26, label %24

24:                                               ; preds = %21
  %25 = getelementptr inbounds nuw i8, ptr %11, i64 288
  tail call void (ptr, ...) @dt_print_ext(ptr noundef nonnull @.str.46, i32 noundef %17, ptr noundef nonnull %25, ptr noundef nonnull @.str.3, i32 noundef 1374, ptr noundef nonnull @__FUNCTION__.dt_lib_cleanup) #19
  br label %26

26:                                               ; preds = %21, %24, %18, %15
  %27 = getelementptr inbounds nuw i8, ptr %11, i64 112
  %28 = load ptr, ptr %27, align 8, !tbaa !171
  tail call void %28(ptr noundef nonnull %11) #19
  store ptr null, ptr %13, align 8, !tbaa !170
  br label %29

29:                                               ; preds = %26, %12
  %30 = getelementptr i8, ptr %11, i64 272
  %.val = load ptr, ptr %30, align 8, !tbaa !155
  %.not.i = icmp eq ptr %.val, null
  br i1 %.not.i, label %dt_lib_unload_module.exit, label %31

31:                                               ; preds = %29
  %32 = tail call i32 @g_module_close(ptr noundef nonnull %.val) #19
  br label %dt_lib_unload_module.exit

dt_lib_unload_module.exit:                        ; preds = %29, %31
  tail call void @free(ptr noundef nonnull %11) #19
  %.pre = load ptr, ptr %0, align 8, !tbaa !154
  br label %33

33:                                               ; preds = %dt_lib_unload_module.exit, %.lr.ph
  %34 = phi ptr [ %.pre, %dt_lib_unload_module.exit ], [ %10, %.lr.ph ]
  %35 = tail call ptr @g_list_delete_link(ptr noundef %34, ptr noundef %34) #19
  store ptr %35, ptr %0, align 8, !tbaa !154
  %.not19 = icmp eq ptr %35, null
  br i1 %.not19, label %._crit_edge, label %.lr.ph

._crit_edge:                                      ; preds = %33, %8
  ret void
}